target datalayout = "e-m:e-p270:32:32-p271:32:32-p272:64:64-i64:64-i128:128-f80:128-n8:16:32:64-S128"
target triple = "x86_64-pc-linux-gnu"

%struct._stmt = type { i32, %union.anon.11, i32, i32, i32, i32 }
%union.anon.11 = type { %struct.anon.12 }
%struct.anon.12 = type { ptr, ptr, ptr, ptr, ptr, ptr, ptr }
%struct.anon.29 = type { ptr, ptr, ptr, ptr }

; Function Attrs: nounwind uwtable
define hidden ptr @_PyAST_Try(ptr noundef %0, ptr noundef %1, ptr noundef %2, ptr noundef %3, i32 noundef %4, i32 noundef %5, i32 noundef %6, i32 noundef %7, ptr noundef %8) #0 {
  %10 = alloca ptr, align 8
  %11 = alloca ptr, align 8
  %12 = alloca ptr, align 8
  %13 = alloca ptr, align 8
  %14 = alloca ptr, align 8
  %15 = alloca i32, align 4
  %16 = alloca i32, align 4
  %17 = alloca i32, align 4
  %18 = alloca i32, align 4
  %19 = alloca ptr, align 8
  %20 = alloca ptr, align 8
  %21 = alloca i32, align 4
  store ptr %0, ptr %11, align 8, !tbaa !26
  store ptr %1, ptr %12, align 8, !tbaa !26
  store ptr %2, ptr %13, align 8, !tbaa !26
  store ptr %3, ptr %14, align 8, !tbaa !26
  store i32 %4, ptr %15, align 4, !tbaa !38
  store i32 %5, ptr %16, align 4, !tbaa !38
  store i32 %6, ptr %17, align 4, !tbaa !38
  store i32 %7, ptr %18, align 4, !tbaa !38
  store ptr %8, ptr %19, align 8, !tbaa !24
  call void @llvm.lifetime.start.p0(i64 8, ptr %20) #8
  %22 = load ptr, ptr %19, align 8, !tbaa !24
  %23 = call ptr @_PyArena_Malloc(ptr noundef %22, i64 noundef 80)
  store ptr %23, ptr %20, align 8, !tbaa !39
  %24 = load ptr, ptr %20, align 8, !tbaa !39
  %25 = icmp ne ptr %24, null
  br i1 %25, label %27, label %26

26:                                               ; preds = %9
  store ptr null, ptr %10, align 8
  store i32 1, ptr %21, align 4
  br label %59

27:                                               ; preds = %9
  %28 = load ptr, ptr %20, align 8, !tbaa !39
  %29 = getelementptr inbounds nuw %struct._stmt, ptr %28, i32 0, i32 0
  store i32 18, ptr %29, align 8, !tbaa !41
  %30 = load ptr, ptr %11, align 8, !tbaa !26
  %31 = load ptr, ptr %20, align 8, !tbaa !39
  %32 = getelementptr inbounds nuw %struct._stmt, ptr %31, i32 0, i32 1
  %33 = getelementptr inbounds nuw %struct.anon.29, ptr %32, i32 0, i32 0
  store ptr %30, ptr %33, align 8, !tbaa !21
  %34 = load ptr, ptr %12, align 8, !tbaa !26
  %35 = load ptr, ptr %20, align 8, !tbaa !39
  %36 = getelementptr inbounds nuw %struct._stmt, ptr %35, i32 0, i32 1
  %37 = getelementptr inbounds nuw %struct.anon.29, ptr %36, i32 0, i32 1
  store ptr %34, ptr %37, align 8, !tbaa !21
  %38 = load ptr, ptr %13, align 8, !tbaa !26
  %39 = load ptr, ptr %20, align 8, !tbaa !39
  %40 = getelementptr inbounds nuw %struct._stmt, ptr %39, i32 0, i32 1
  %41 = getelementptr inbounds nuw %struct.anon.29, ptr %40, i32 0, i32 2
  store ptr %38, ptr %41, align 8, !tbaa !21
  %42 = load ptr, ptr %14, align 8, !tbaa !26
  %43 = load ptr, ptr %20, align 8, !tbaa !39
  %44 = getelementptr inbounds nuw %struct._stmt, ptr %43, i32 0, i32 1
  %45 = getelementptr inbounds nuw %struct.anon.29, ptr %44, i32 0, i32 3
  store ptr %42, ptr %45, align 8, !tbaa !21
  %46 = load i32, ptr %15, align 4, !tbaa !38
  %47 = load ptr, ptr %20, align 8, !tbaa !39
  %48 = getelementptr inbounds nuw %struct._stmt, ptr %47, i32 0, i32 2
  store i32 %46, ptr %48, align 8, !tbaa !43
  %49 = load i32, ptr %16, align 4, !tbaa !38
  %50 = load ptr, ptr %20, align 8, !tbaa !39
  %51 = getelementptr inbounds nuw %struct._stmt, ptr %50, i32 0, i32 3
  store i32 %49, ptr %51, align 4, !tbaa !44
  %52 = load i32, ptr %17, align 4, !tbaa !38
  %53 = load ptr, ptr %20, align 8, !tbaa !39
  %54 = getelementptr inbounds nuw %struct._stmt, ptr %53, i32 0, i32 4
  store i32 %52, ptr %54, align 8, !tbaa !45
  %55 = load i32, ptr %18, align 4, !tbaa !38
  %56 = load ptr, ptr %20, align 8, !tbaa !39
  %57 = getelementptr inbounds nuw %struct._stmt, ptr %56, i32 0, i32 5
  store i32 %55, ptr %57, align 4, !tbaa !46
  %58 = load ptr, ptr %20, align 8, !tbaa !39
  store ptr %58, ptr %10, align 8
  store i32 1, ptr %21, align 4
  br label %59

59:                                               ; preds = %27, %26
  call void @llvm.lifetime.end.p0(i64 8, ptr %20) #8
  %60 = load ptr, ptr %10, align 8
  ret ptr %60
}