; Function Attrs: nounwind uwtable
define hidden ptr @_PyAST_Try(ptr noundef %0, ptr noundef %1, ptr noundef %2, ptr noundef %3, i32 noundef %4, i32 noundef %5, i32 noundef %6, i32 noundef %7, ptr noundef %8) local_unnamed_addr #0 {
  %10 = tail call ptr @_PyArena_Malloc(ptr noundef %8, i64 noundef 80) #8
  %.not = icmp eq ptr %10, null
  br i1 %.not, label %20, label %11

11:                                               ; preds = %9
  store i32 18, ptr %10, align 8, !tbaa !20
  %12 = getelementptr inbounds nuw i8, ptr %10, i64 8
  store ptr %0, ptr %12, align 8, !tbaa !9
  %13 = getelementptr inbounds nuw i8, ptr %10, i64 16
  store ptr %1, ptr %13, align 8, !tbaa !9
  %14 = getelementptr inbounds nuw i8, ptr %10, i64 24
  store ptr %2, ptr %14, align 8, !tbaa !9
  %15 = getelementptr inbounds nuw i8, ptr %10, i64 32
  store ptr %3, ptr %15, align 8, !tbaa !9
  %16 = getelementptr inbounds nuw i8, ptr %10, i64 64
  store i32 %4, ptr %16, align 8, !tbaa !22
  %17 = getelementptr inbounds nuw i8, ptr %10, i64 68
  store i32 %5, ptr %17, align 4, !tbaa !23
  %18 = getelementptr inbounds nuw i8, ptr %10, i64 72
  store i32 %6, ptr %18, align 8, !tbaa !24
  %19 = getelementptr inbounds nuw i8, ptr %10, i64 76
  store i32 %7, ptr %19, align 4, !tbaa !25
  br label %20

20:                                               ; preds = %9, %11
  ret ptr %10
}